target datalayout = "e-m:e-p270:32:32-p271:32:32-p272:64:64-i64:64-i128:128-f80:128-n8:16:32:64-S128"
target triple = "x86_64-pc-linux-gnu"

%"struct.cv::OcvDftOptions" = type <{ i32, [4 x i8], ptr, double, ptr, ptr, i32, i32, i8, i8, i8, i8, [4 x i8], ptr, i8, [7 x i8] }>
%"class.cv::Complex" = type { double, double }

; Function Attrs: mustprogress uwtable
define internal void @_ZN2cvL3DCTIdEEvRKNS_13OcvDftOptionsEPKT_mPS4_S7_S7_mPKNS_7ComplexIS4_EE(ptr noundef nonnull align 8 dereferenceable(65) %0, ptr noundef %1, i64 noundef %2, ptr noundef %3, ptr noundef %4, ptr noundef %5, i64 noundef %6, ptr noundef %7) #0 {
  %9 = alloca ptr, align 8
  %10 = alloca ptr, align 8
  %11 = alloca i64, align 8
  %12 = alloca ptr, align 8
  %13 = alloca ptr, align 8
  %14 = alloca ptr, align 8
  %15 = alloca i64, align 8
  %16 = alloca ptr, align 8
  %17 = alloca i32, align 4
  %18 = alloca i32, align 4
  %19 = alloca i32, align 4
  %20 = alloca ptr, align 8
  %21 = alloca i32, align 4
  %22 = alloca double, align 8
  %23 = alloca double, align 8
  store ptr %0, ptr %9, align 8, !tbaa !170
  store ptr %1, ptr %10, align 8, !tbaa !128
  store i64 %2, ptr %11, align 8, !tbaa !118
  store ptr %3, ptr %12, align 8, !tbaa !128
  store ptr %4, ptr %13, align 8, !tbaa !128
  store ptr %5, ptr %14, align 8, !tbaa !128
  store i64 %6, ptr %15, align 8, !tbaa !118
  store ptr %7, ptr %16, align 8, !tbaa !216
  call void @llvm.lifetime.start.p0(i64 4, ptr %17) #19
  %24 = load ptr, ptr %9, align 8, !tbaa !170
  %25 = getelementptr inbounds nuw %"struct.cv::OcvDftOptions", ptr %24, i32 0, i32 7
  %26 = load i32, ptr %25, align 4, !tbaa !178
  store i32 %26, ptr %17, align 4, !tbaa !3
  call void @llvm.lifetime.start.p0(i64 4, ptr %18) #19
  call void @llvm.lifetime.start.p0(i64 4, ptr %19) #19
  %27 = load i32, ptr %17, align 4, !tbaa !3
  %28 = ashr i32 %27, 1
  store i32 %28, ptr %19, align 4, !tbaa !3
  %29 = load i64, ptr %11, align 8, !tbaa !118
  %30 = udiv i64 %29, 8
  store i64 %30, ptr %11, align 8, !tbaa !118
  %31 = load i64, ptr %15, align 8, !tbaa !118
  %32 = udiv i64 %31, 8
  store i64 %32, ptr %15, align 8, !tbaa !118
  call void @llvm.lifetime.start.p0(i64 8, ptr %20) #19
  %33 = load ptr, ptr %14, align 8, !tbaa !128
  %34 = load i32, ptr %17, align 4, !tbaa !3
  %35 = sub nsw i32 %34, 1
  %36 = sext i32 %35 to i64
  %37 = load i64, ptr %15, align 8, !tbaa !118
  %38 = mul i64 %36, %37
  %39 = getelementptr inbounds nuw double, ptr %33, i64 %38
  store ptr %39, ptr %20, align 8, !tbaa !128
  %40 = load i32, ptr %17, align 4, !tbaa !3
  %41 = icmp eq i32 %40, 1
  br i1 %41, label %42, label %48

42:                                               ; preds = %8
  %43 = load ptr, ptr %10, align 8, !tbaa !128
  %44 = getelementptr inbounds double, ptr %43, i64 0
  %45 = load double, ptr %44, align 8, !tbaa !198
  %46 = load ptr, ptr %14, align 8, !tbaa !128
  %47 = getelementptr inbounds double, ptr %46, i64 0
  store double %45, ptr %47, align 8, !tbaa !198
  store i32 1, ptr %21, align 4
  br label %180

48:                                               ; preds = %8
  store i32 0, ptr %18, align 4, !tbaa !3
  br label %49

49:                                               ; preds = %72, %48
  %50 = load i32, ptr %18, align 4, !tbaa !3
  %51 = load i32, ptr %19, align 4, !tbaa !3
  %52 = icmp slt i32 %50, %51
  br i1 %52, label %53, label %79

53:                                               ; preds = %49
  %54 = load ptr, ptr %10, align 8, !tbaa !128
  %55 = getelementptr inbounds double, ptr %54, i64 0
  %56 = load double, ptr %55, align 8, !tbaa !198
  %57 = load ptr, ptr %12, align 8, !tbaa !128
  %58 = load i32, ptr %18, align 4, !tbaa !3
  %59 = sext i32 %58 to i64
  %60 = getelementptr inbounds double, ptr %57, i64 %59
  store double %56, ptr %60, align 8, !tbaa !198
  %61 = load ptr, ptr %10, align 8, !tbaa !128
  %62 = load i64, ptr %11, align 8, !tbaa !118
  %63 = getelementptr inbounds nuw double, ptr %61, i64 %62
  %64 = load double, ptr %63, align 8, !tbaa !198
  %65 = load ptr, ptr %12, align 8, !tbaa !128
  %66 = load i32, ptr %17, align 4, !tbaa !3
  %67 = load i32, ptr %18, align 4, !tbaa !3
  %68 = sub nsw i32 %66, %67
  %69 = sub nsw i32 %68, 1
  %70 = sext i32 %69 to i64
  %71 = getelementptr inbounds double, ptr %65, i64 %70
  store double %64, ptr %71, align 8, !tbaa !198
  br label %72

72:                                               ; preds = %53
  %73 = load i32, ptr %18, align 4, !tbaa !3
  %74 = add nsw i32 %73, 1
  store i32 %74, ptr %18, align 4, !tbaa !3
  %75 = load i64, ptr %11, align 8, !tbaa !118
  %76 = mul i64 %75, 2
  %77 = load ptr, ptr %10, align 8, !tbaa !128
  %78 = getelementptr inbounds nuw double, ptr %77, i64 %76
  store ptr %78, ptr %10, align 8, !tbaa !128
  br label %49, !llvm.loop !397

79:                                               ; preds = %49
  %80 = load ptr, ptr %9, align 8, !tbaa !170
  %81 = load ptr, ptr %12, align 8, !tbaa !128
  %82 = load ptr, ptr %13, align 8, !tbaa !128
  call void @_ZN2cvL7RealDFTIdEEvRKNS_13OcvDftOptionsEPKT_PS4_(ptr noundef nonnull align 8 dereferenceable(65) %80, ptr noundef %81, ptr noundef %82)
  %83 = load ptr, ptr %13, align 8, !tbaa !128
  store ptr %83, ptr %10, align 8, !tbaa !128
  %84 = load ptr, ptr %10, align 8, !tbaa !128
  %85 = getelementptr inbounds double, ptr %84, i64 0
  %86 = load double, ptr %85, align 8, !tbaa !198
  %87 = load ptr, ptr %16, align 8, !tbaa !216
  %88 = getelementptr inbounds nuw %"class.cv::Complex", ptr %87, i32 0, i32 0
  %89 = load double, ptr %88, align 8, !tbaa !213
  %90 = fmul double %86, %89
  %91 = fmul double %90, 0x3FE6A09E667F3BCD
  %92 = load ptr, ptr %14, align 8, !tbaa !128
  %93 = getelementptr inbounds double, ptr %92, i64 0
  store double %91, ptr %93, align 8, !tbaa !198
  %94 = load i64, ptr %15, align 8, !tbaa !118
  %95 = load ptr, ptr %14, align 8, !tbaa !128
  %96 = getelementptr inbounds nuw double, ptr %95, i64 %94
  store ptr %96, ptr %14, align 8, !tbaa !128
  store i32 1, ptr %18, align 4, !tbaa !3
  %97 = load ptr, ptr %16, align 8, !tbaa !216
  %98 = getelementptr inbounds nuw %"class.cv::Complex", ptr %97, i32 1
  store ptr %98, ptr %16, align 8, !tbaa !216
  br label %99

99:                                               ; preds = %155, %79
  %100 = load i32, ptr %18, align 4, !tbaa !3
  %101 = load i32, ptr %19, align 4, !tbaa !3
  %102 = icmp slt i32 %100, %101
  br i1 %102, label %103, label %167

103:                                              ; preds = %99
  call void @llvm.lifetime.start.p0(i64 8, ptr %22) #19
  %104 = load ptr, ptr %16, align 8, !tbaa !216
  %105 = getelementptr inbounds nuw %"class.cv::Complex", ptr %104, i32 0, i32 0
  %106 = load double, ptr %105, align 8, !tbaa !213
  %107 = load ptr, ptr %10, align 8, !tbaa !128
  %108 = load i32, ptr %18, align 4, !tbaa !3
  %109 = mul nsw i32 %108, 2
  %110 = sub nsw i32 %109, 1
  %111 = sext i32 %110 to i64
  %112 = getelementptr inbounds double, ptr %107, i64 %111
  %113 = load double, ptr %112, align 8, !tbaa !198
  %114 = load ptr, ptr %16, align 8, !tbaa !216
  %115 = getelementptr inbounds nuw %"class.cv::Complex", ptr %114, i32 0, i32 1
  %116 = load double, ptr %115, align 8, !tbaa !215
  %117 = load ptr, ptr %10, align 8, !tbaa !128
  %118 = load i32, ptr %18, align 4, !tbaa !3
  %119 = mul nsw i32 %118, 2
  %120 = sext i32 %119 to i64
  %121 = getelementptr inbounds double, ptr %117, i64 %120
  %122 = load double, ptr %121, align 8, !tbaa !198
  %123 = fmul double %116, %122
  %124 = fneg double %123
  %125 = call double @llvm.fmuladd.f64(double %106, double %113, double %124)
  store double %125, ptr %22, align 8, !tbaa !198
  call void @llvm.lifetime.start.p0(i64 8, ptr %23) #19
  %126 = load ptr, ptr %16, align 8, !tbaa !216
  %127 = getelementptr inbounds nuw %"class.cv::Complex", ptr %126, i32 0, i32 1
  %128 = load double, ptr %127, align 8, !tbaa !215
  %129 = fneg double %128
  %130 = load ptr, ptr %10, align 8, !tbaa !128
  %131 = load i32, ptr %18, align 4, !tbaa !3
  %132 = mul nsw i32 %131, 2
  %133 = sub nsw i32 %132, 1
  %134 = sext i32 %133 to i64
  %135 = getelementptr inbounds double, ptr %130, i64 %134
  %136 = load double, ptr %135, align 8, !tbaa !198
  %137 = load ptr, ptr %16, align 8, !tbaa !216
  %138 = getelementptr inbounds nuw %"class.cv::Complex", ptr %137, i32 0, i32 0
  %139 = load double, ptr %138, align 8, !tbaa !213
  %140 = load ptr, ptr %10, align 8, !tbaa !128
  %141 = load i32, ptr %18, align 4, !tbaa !3
  %142 = mul nsw i32 %141, 2
  %143 = sext i32 %142 to i64
  %144 = getelementptr inbounds double, ptr %140, i64 %143
  %145 = load double, ptr %144, align 8, !tbaa !198
  %146 = fmul double %139, %145
  %147 = fneg double %146
  %148 = call double @llvm.fmuladd.f64(double %129, double %136, double %147)
  store double %148, ptr %23, align 8, !tbaa !198
  %149 = load double, ptr %22, align 8, !tbaa !198
  %150 = load ptr, ptr %14, align 8, !tbaa !128
  %151 = getelementptr inbounds double, ptr %150, i64 0
  store double %149, ptr %151, align 8, !tbaa !198
  %152 = load double, ptr %23, align 8, !tbaa !198
  %153 = load ptr, ptr %20, align 8, !tbaa !128
  %154 = getelementptr inbounds double, ptr %153, i64 0
  store double %152, ptr %154, align 8, !tbaa !198
  call void @llvm.lifetime.end.p0(i64 8, ptr %23) #19
  call void @llvm.lifetime.end.p0(i64 8, ptr %22) #19
  br label %155

155:                                              ; preds = %103
  %156 = load i32, ptr %18, align 4, !tbaa !3
  %157 = add nsw i32 %156, 1
  store i32 %157, ptr %18, align 4, !tbaa !3
  %158 = load ptr, ptr %16, align 8, !tbaa !216
  %159 = getelementptr inbounds nuw %"class.cv::Complex", ptr %158, i32 1
  store ptr %159, ptr %16, align 8, !tbaa !216
  %160 = load i64, ptr %15, align 8, !tbaa !118
  %161 = load ptr, ptr %14, align 8, !tbaa !128
  %162 = getelementptr inbounds nuw double, ptr %161, i64 %160
  store ptr %162, ptr %14, align 8, !tbaa !128
  %163 = load i64, ptr %15, align 8, !tbaa !118
  %164 = load ptr, ptr %20, align 8, !tbaa !128
  %165 = sub i64 0, %163
  %166 = getelementptr inbounds double, ptr %164, i64 %165
  store ptr %166, ptr %20, align 8, !tbaa !128
  br label %99, !llvm.loop !398

167:                                              ; preds = %99
  %168 = load ptr, ptr %10, align 8, !tbaa !128
  %169 = load i32, ptr %17, align 4, !tbaa !3
  %170 = sub nsw i32 %169, 1
  %171 = sext i32 %170 to i64
  %172 = getelementptr inbounds double, ptr %168, i64 %171
  %173 = load double, ptr %172, align 8, !tbaa !198
  %174 = load ptr, ptr %16, align 8, !tbaa !216
  %175 = getelementptr inbounds nuw %"class.cv::Complex", ptr %174, i32 0, i32 0
  %176 = load double, ptr %175, align 8, !tbaa !213
  %177 = fmul double %173, %176
  %178 = load ptr, ptr %14, align 8, !tbaa !128
  %179 = getelementptr inbounds double, ptr %178, i64 0
  store double %177, ptr %179, align 8, !tbaa !198
  store i32 0, ptr %21, align 4
  br label %180

180:                                              ; preds = %167, %42
  call void @llvm.lifetime.end.p0(i64 8, ptr %20) #19
  call void @llvm.lifetime.end.p0(i64 4, ptr %19) #19
  call void @llvm.lifetime.end.p0(i64 4, ptr %18) #19
  call void @llvm.lifetime.end.p0(i64 4, ptr %17) #19
  %181 = load i32, ptr %21, align 4
  switch i32 %181, label %183 [
    i32 0, label %182
    i32 1, label %182
  ]

182:                                              ; preds = %180, %180
  ret void

183:                                              ; preds = %180
  unreachable
}

; Function Attrs: mustprogress uwtable
define internal void @_ZN2cvL7DCT_64fERKNS_13OcvDftOptionsEPKdmPdS5_S5_mPKNS_7ComplexIdEE(ptr noundef nonnull align 8 dereferenceable(65) %0, ptr noundef %1, i64 noundef %2, ptr noundef %3, ptr noundef %4, ptr noundef %5, i64 noundef %6, ptr noundef %7) #0 {
  %9 = alloca ptr, align 8
  %10 = alloca ptr, align 8
  %11 = alloca i64, align 8
  %12 = alloca ptr, align 8
  %13 = alloca ptr, align 8
  %14 = alloca ptr, align 8
  %15 = alloca i64, align 8
  %16 = alloca ptr, align 8
  store ptr %0, ptr %9, align 8, !tbaa !170
  store ptr %1, ptr %10, align 8, !tbaa !128
  store i64 %2, ptr %11, align 8, !tbaa !118
  store ptr %3, ptr %12, align 8, !tbaa !128
  store ptr %4, ptr %13, align 8, !tbaa !128
  store ptr %5, ptr %14, align 8, !tbaa !128
  store i64 %6, ptr %15, align 8, !tbaa !118
  store ptr %7, ptr %16, align 8, !tbaa !216
  %17 = load ptr, ptr %9, align 8, !tbaa !170
  %18 = load ptr, ptr %10, align 8, !tbaa !128
  %19 = load i64, ptr %11, align 8, !tbaa !118
  %20 = load ptr, ptr %12, align 8, !tbaa !128
  %21 = load ptr, ptr %13, align 8, !tbaa !128
  %22 = load ptr, ptr %14, align 8, !tbaa !128
  %23 = load i64, ptr %15, align 8, !tbaa !118
  %24 = load ptr, ptr %16, align 8, !tbaa !216
  call void @_ZN2cvL3DCTIdEEvRKNS_13OcvDftOptionsEPKT_mPS4_S7_S7_mPKNS_7ComplexIS4_EE(ptr noundef nonnull align 8 dereferenceable(65) %17, ptr noundef %18, i64 noundef %19, ptr noundef %20, ptr noundef %21, ptr noundef %22, i64 noundef %23, ptr noundef %24)
  ret void
}