; Function Attrs: mustprogress uwtable
define internal void @_ZN2cvL7DCT_64fERKNS_13OcvDftOptionsEPKdmPdS5_S5_mPKNS_7ComplexIdEE(ptr noundef nonnull readonly align 8 captures(none) dereferenceable(65) %0, ptr noundef readonly captures(none) %1, i64 noundef %2, ptr noundef %3, ptr noundef %4, ptr noundef writeonly captures(none) %5, i64 noundef %6, ptr noundef readonly captures(none) %7) #0 {
  %9 = getelementptr inbounds nuw i8, ptr %0, i64 44
  %10 = load i32, ptr %9, align 4, !tbaa !213
  %11 = ashr i32 %10, 1
  %12 = lshr i64 %2, 3
  %13 = lshr i64 %6, 3
  %14 = add nsw i32 %10, -1
  %15 = sext i32 %14 to i64
  %16 = mul i64 %13, %15
  %17 = getelementptr inbounds nuw double, ptr %5, i64 %16
  %18 = icmp eq i32 %10, 1
  br i1 %18, label %20, label %.preheader.i

.preheader.i:                                     ; preds = %8
  %19 = icmp sgt i32 %11, 0
  br i1 %19, label %.lr.ph.i, label %._crit_edge.i

.lr.ph.i:                                         ; preds = %.preheader.i
  %.idx.i = shl nuw nsw i64 %12, 4
  %wide.trip.count.i = zext nneg i32 %11 to i64
  br label %22

20:                                               ; preds = %8
  %21 = load double, ptr %1, align 8, !tbaa !144
  store double %21, ptr %5, align 8, !tbaa !144
  br label %_ZN2cvL3DCTIdEEvRKNS_13OcvDftOptionsEPKT_mPS4_S7_S7_mPKNS_7ComplexIS4_EE.exit

22:                                               ; preds = %22, %.lr.ph.i
  %indvars.iv.i = phi i64 [ 0, %.lr.ph.i ], [ %indvars.iv.next.i, %22 ]
  %.068.i = phi ptr [ %1, %.lr.ph.i ], [ %32, %22 ]
  %23 = load double, ptr %.068.i, align 8, !tbaa !144
  %24 = getelementptr inbounds nuw double, ptr %3, i64 %indvars.iv.i
  store double %23, ptr %24, align 8, !tbaa !144
  %25 = getelementptr inbounds nuw double, ptr %.068.i, i64 %12
  %26 = load double, ptr %25, align 8, !tbaa !144
  %27 = trunc i64 %indvars.iv.i to i32
  %28 = xor i32 %27, -1
  %29 = add i32 %10, %28
  %30 = sext i32 %29 to i64
  %31 = getelementptr inbounds double, ptr %3, i64 %30
  store double %26, ptr %31, align 8, !tbaa !144
  %indvars.iv.next.i = add nuw nsw i64 %indvars.iv.i, 1
  %32 = getelementptr inbounds nuw i8, ptr %.068.i, i64 %.idx.i
  %exitcond.not.i = icmp eq i64 %indvars.iv.next.i, %wide.trip.count.i
  br i1 %exitcond.not.i, label %._crit_edge.i, label %22, !llvm.loop !326

._crit_edge.i:                                    ; preds = %22, %.preheader.i
  tail call fastcc void @_ZN2cvL7RealDFTIdEEvRKNS_13OcvDftOptionsEPKT_PS4_(ptr noundef nonnull readonly align 8 dereferenceable(65) %0, ptr noundef %3, ptr noundef %4)
  %33 = load double, ptr %4, align 8, !tbaa !144
  %34 = load double, ptr %7, align 8, !tbaa !203
  %35 = fmul double %33, %34
  %36 = fmul double %35, 0x3FE6A09E667F3BCD
  store double %36, ptr %5, align 8, !tbaa !144
  %.06369.i = getelementptr inbounds nuw i8, ptr %7, i64 16
  %.06170.i = getelementptr inbounds nuw double, ptr %5, i64 %13
  %37 = icmp sgt i32 %11, 1
  br i1 %37, label %.lr.ph77.i, label %._crit_edge78.i

.lr.ph77.i:                                       ; preds = %._crit_edge.i
  %38 = sub nsw i64 0, %13
  %wide.trip.count86.i = zext nneg i32 %11 to i64
  br label %39

39:                                               ; preds = %39, %.lr.ph77.i
  %indvars.iv83.i = phi i64 [ 1, %.lr.ph77.i ], [ %indvars.iv.next84.i, %39 ]
  %.06175.i = phi ptr [ %.06170.i, %.lr.ph77.i ], [ %.061.i, %39 ]
  %.06374.i = phi ptr [ %.06369.i, %.lr.ph77.i ], [ %.063.i, %39 ]
  %.06073.i = phi ptr [ %17, %.lr.ph77.i ], [ %53, %39 ]
  %.pn6671.i = phi ptr [ %7, %.lr.ph77.i ], [ %.06374.i, %39 ]
  %40 = load double, ptr %.06374.i, align 8, !tbaa !203
  %.idx88.i = shl i64 %indvars.iv83.i, 4
  %41 = getelementptr i8, ptr %4, i64 %.idx88.i
  %42 = getelementptr i8, ptr %41, i64 -8
  %43 = load double, ptr %42, align 8, !tbaa !144
  %44 = getelementptr inbounds nuw i8, ptr %.pn6671.i, i64 24
  %45 = load double, ptr %44, align 8, !tbaa !205
  %46 = load double, ptr %41, align 8, !tbaa !144
  %47 = fneg double %46
  %48 = fmul double %45, %47
  %49 = tail call double @llvm.fmuladd.f64(double %40, double %43, double %48)
  %50 = fneg double %45
  %51 = fmul double %40, %47
  %52 = tail call double @llvm.fmuladd.f64(double %50, double %43, double %51)
  store double %49, ptr %.06175.i, align 8, !tbaa !144
  store double %52, ptr %.06073.i, align 8, !tbaa !144
  %indvars.iv.next84.i = add nuw nsw i64 %indvars.iv83.i, 1
  %53 = getelementptr inbounds double, ptr %.06073.i, i64 %38
  %.063.i = getelementptr inbounds nuw i8, ptr %.06374.i, i64 16
  %.061.i = getelementptr inbounds nuw double, ptr %.06175.i, i64 %13
  %exitcond87.not.i = icmp eq i64 %indvars.iv.next84.i, %wide.trip.count86.i
  br i1 %exitcond87.not.i, label %._crit_edge78.i, label %39, !llvm.loop !327

._crit_edge78.i:                                  ; preds = %39, %._crit_edge.i
  %.063.lcssa.i = phi ptr [ %.06369.i, %._crit_edge.i ], [ %.063.i, %39 ]
  %.061.lcssa.i = phi ptr [ %.06170.i, %._crit_edge.i ], [ %.061.i, %39 ]
  %54 = getelementptr inbounds double, ptr %4, i64 %15
  %55 = load double, ptr %54, align 8, !tbaa !144
  %56 = load double, ptr %.063.lcssa.i, align 8, !tbaa !203
  %57 = fmul double %55, %56
  store double %57, ptr %.061.lcssa.i, align 8, !tbaa !144
  br label %_ZN2cvL3DCTIdEEvRKNS_13OcvDftOptionsEPKT_mPS4_S7_S7_mPKNS_7ComplexIS4_EE.exit

_ZN2cvL3DCTIdEEvRKNS_13OcvDftOptionsEPKT_mPS4_S7_S7_mPKNS_7ComplexIS4_EE.exit: ; preds = %20, %._crit_edge78.i
  ret void
}